target datalayout = "e-m:e-p270:32:32-p271:32:32-p272:64:64-i64:64-i128:128-f80:128-n8:16:32:64-S128"
target triple = "x86_64-pc-linux-gnu"

; Function Attrs: nounwind uwtable
define internal void @horiz_slice_c(ptr noundef %0, i32 noundef %1, i32 noundef %2, i32 noundef %3, float noundef %4, float noundef %5, ptr noundef %6) #2 {
  %8 = alloca ptr, align 8
  %9 = alloca i32, align 4
  %10 = alloca i32, align 4
  %11 = alloca i32, align 4
  %12 = alloca float, align 4
  %13 = alloca float, align 4
  %14 = alloca ptr, align 8
  %15 = alloca i32, align 4
  %16 = alloca i32, align 4
  %17 = alloca i32, align 4
  %18 = alloca i32, align 4
  %19 = alloca ptr, align 8
  store ptr %0, ptr %8, align 8, !tbaa !48
  store i32 %1, ptr %9, align 4, !tbaa !45
  store i32 %2, ptr %10, align 4, !tbaa !45
  store i32 %3, ptr %11, align 4, !tbaa !45
  store float %4, ptr %12, align 4, !tbaa !56
  store float %5, ptr %13, align 4, !tbaa !56
  store ptr %6, ptr %14, align 8, !tbaa !48
  call void @llvm.lifetime.start.p0(i64 4, ptr %15) #8
  call void @llvm.lifetime.start.p0(i64 4, ptr %16) #8
  store i32 0, ptr %16, align 4, !tbaa !45
  br label %20

20:                                               ; preds = %98, %7
  %21 = load i32, ptr %16, align 4, !tbaa !45
  %22 = load i32, ptr %10, align 4, !tbaa !45
  %23 = icmp slt i32 %21, %22
  br i1 %23, label %25, label %24

24:                                               ; preds = %20
  store i32 2, ptr %17, align 4
  call void @llvm.lifetime.end.p0(i64 4, ptr %16) #8
  br label %101

25:                                               ; preds = %20
  call void @llvm.lifetime.start.p0(i64 4, ptr %18) #8
  store i32 0, ptr %18, align 4, !tbaa !45
  br label %26

26:                                               ; preds = %94, %25
  %27 = load i32, ptr %18, align 4, !tbaa !45
  %28 = load i32, ptr %11, align 4, !tbaa !45
  %29 = icmp slt i32 %27, %28
  br i1 %29, label %31, label %30

30:                                               ; preds = %26
  store i32 5, ptr %17, align 4
  call void @llvm.lifetime.end.p0(i64 4, ptr %18) #8
  br label %97

31:                                               ; preds = %26
  call void @llvm.lifetime.start.p0(i64 8, ptr %19) #8
  %32 = load ptr, ptr %8, align 8, !tbaa !48
  %33 = load i32, ptr %9, align 4, !tbaa !45
  %34 = load i32, ptr %16, align 4, !tbaa !45
  %35 = mul nsw i32 %33, %34
  %36 = sext i32 %35 to i64
  %37 = getelementptr inbounds float, ptr %32, i64 %36
  store ptr %37, ptr %19, align 8, !tbaa !48
  %38 = load float, ptr %13, align 4, !tbaa !56
  %39 = load ptr, ptr %19, align 8, !tbaa !48
  %40 = getelementptr inbounds float, ptr %39, i64 0
  %41 = load float, ptr %40, align 4, !tbaa !56
  %42 = fmul nsz float %41, %38
  store float %42, ptr %40, align 4, !tbaa !56
  store i32 1, ptr %15, align 4, !tbaa !45
  br label %43

43:                                               ; preds = %61, %31
  %44 = load i32, ptr %15, align 4, !tbaa !45
  %45 = load i32, ptr %9, align 4, !tbaa !45
  %46 = icmp slt i32 %44, %45
  br i1 %46, label %47, label %64

47:                                               ; preds = %43
  %48 = load float, ptr %12, align 4, !tbaa !56
  %49 = load ptr, ptr %19, align 8, !tbaa !48
  %50 = load i32, ptr %15, align 4, !tbaa !45
  %51 = sub nsw i32 %50, 1
  %52 = sext i32 %51 to i64
  %53 = getelementptr inbounds float, ptr %49, i64 %52
  %54 = load float, ptr %53, align 4, !tbaa !56
  %55 = load ptr, ptr %19, align 8, !tbaa !48
  %56 = load i32, ptr %15, align 4, !tbaa !45
  %57 = sext i32 %56 to i64
  %58 = getelementptr inbounds float, ptr %55, i64 %57
  %59 = load float, ptr %58, align 4, !tbaa !56
  %60 = call nsz float @llvm.fmuladd.f32(float %48, float %54, float %59)
  store float %60, ptr %58, align 4, !tbaa !56
  br label %61

61:                                               ; preds = %47
  %62 = load i32, ptr %15, align 4, !tbaa !45
  %63 = add nsw i32 %62, 1
  store i32 %63, ptr %15, align 4, !tbaa !45
  br label %43, !llvm.loop !98

64:                                               ; preds = %43
  %65 = load float, ptr %13, align 4, !tbaa !56
  %66 = load ptr, ptr %19, align 8, !tbaa !48
  %67 = load i32, ptr %9, align 4, !tbaa !45
  %68 = sub nsw i32 %67, 1
  store i32 %68, ptr %15, align 4, !tbaa !45
  %69 = sext i32 %68 to i64
  %70 = getelementptr inbounds float, ptr %66, i64 %69
  %71 = load float, ptr %70, align 4, !tbaa !56
  %72 = fmul nsz float %71, %65
  store float %72, ptr %70, align 4, !tbaa !56
  br label %73

73:                                               ; preds = %90, %64
  %74 = load i32, ptr %15, align 4, !tbaa !45
  %75 = icmp sgt i32 %74, 0
  br i1 %75, label %76, label %93

76:                                               ; preds = %73
  %77 = load float, ptr %12, align 4, !tbaa !56
  %78 = load ptr, ptr %19, align 8, !tbaa !48
  %79 = load i32, ptr %15, align 4, !tbaa !45
  %80 = sext i32 %79 to i64
  %81 = getelementptr inbounds float, ptr %78, i64 %80
  %82 = load float, ptr %81, align 4, !tbaa !56
  %83 = load ptr, ptr %19, align 8, !tbaa !48
  %84 = load i32, ptr %15, align 4, !tbaa !45
  %85 = sub nsw i32 %84, 1
  %86 = sext i32 %85 to i64
  %87 = getelementptr inbounds float, ptr %83, i64 %86
  %88 = load float, ptr %87, align 4, !tbaa !56
  %89 = call nsz float @llvm.fmuladd.f32(float %77, float %82, float %88)
  store float %89, ptr %87, align 4, !tbaa !56
  br label %90

90:                                               ; preds = %76
  %91 = load i32, ptr %15, align 4, !tbaa !45
  %92 = add nsw i32 %91, -1
  store i32 %92, ptr %15, align 4, !tbaa !45
  br label %73, !llvm.loop !99

93:                                               ; preds = %73
  call void @llvm.lifetime.end.p0(i64 8, ptr %19) #8
  br label %94

94:                                               ; preds = %93
  %95 = load i32, ptr %18, align 4, !tbaa !45
  %96 = add nsw i32 %95, 1
  store i32 %96, ptr %18, align 4, !tbaa !45
  br label %26, !llvm.loop !100

97:                                               ; preds = %30
  br label %98

98:                                               ; preds = %97
  %99 = load i32, ptr %16, align 4, !tbaa !45
  %100 = add nsw i32 %99, 1
  store i32 %100, ptr %16, align 4, !tbaa !45
  br label %20, !llvm.loop !101

101:                                              ; preds = %24
  call void @llvm.lifetime.end.p0(i64 4, ptr %15) #8
  ret void
}