; Function Attrs: nofree norecurse nosync nounwind memory(argmem: readwrite) uwtable
define internal void @horiz_slice_c(ptr noundef captures(none) %0, i32 noundef %1, i32 noundef %2, i32 noundef %3, float noundef %4, float noundef %5, ptr readnone captures(none) %6) #6 {
  %8 = icmp sgt i32 %2, 0
  br i1 %8, label %.preheader.lr.ph, label %._crit_edge

.preheader.lr.ph:                                 ; preds = %7
  %9 = icmp sgt i32 %3, 0
  %10 = add i32 %1, -1
  %11 = sext i32 %10 to i64
  br i1 %9, label %.preheader.lr.ph.split.us, label %._crit_edge

.preheader.lr.ph.split.us:                        ; preds = %.preheader.lr.ph
  %12 = icmp sgt i32 %1, 1
  br i1 %12, label %.preheader.us.us.us.preheader, label %.preheader.us.preheader

.preheader.us.us.us.preheader:                    ; preds = %.preheader.lr.ph.split.us
  %13 = zext i32 %10 to i64
  %14 = zext nneg i32 %1 to i64
  %wide.trip.count89 = zext nneg i32 %2 to i64
  %15 = shl nuw nsw i64 %14, 2
  %16 = shl nuw nsw i64 %13, 2
  %17 = shl nuw nsw i64 %14, 2
  %18 = getelementptr i8, ptr %0, i64 %16
  br label %.preheader.us.us.us

.preheader.us.us.us:                              ; preds = %.preheader.us.us.us.preheader, %._crit_edge38.split.us.us.us.split.us.us
  %indvars.iv86 = phi i64 [ 0, %.preheader.us.us.us.preheader ], [ %indvars.iv.next87, %._crit_edge38.split.us.us.us.split.us.us ]
  %19 = mul i64 %17, %indvars.iv86
  %scevgep93 = getelementptr i8, ptr %18, i64 %19
  %20 = mul i64 %15, %indvars.iv86
  %scevgep = getelementptr nuw i8, ptr %0, i64 %20
  %21 = mul nuw nsw i64 %indvars.iv86, %14
  %22 = getelementptr inbounds nuw float, ptr %0, i64 %21
  %23 = getelementptr inbounds float, ptr %22, i64 %11
  %invariant.gep = getelementptr i8, ptr %22, i64 -4
  br label %.lr.ph.us.us.us.us.us

.lr.ph.us.us.us.us.us:                            ; preds = %._crit_edge35.us.us.us.us.us, %.preheader.us.us.us
  %.02836.us.us.us.us.us = phi i32 [ 0, %.preheader.us.us.us ], [ %36, %._crit_edge35.us.us.us.us.us ]
  %24 = load float, ptr %22, align 4, !tbaa !39
  %25 = fmul nsz float %5, %24
  store float %25, ptr %22, align 4, !tbaa !39
  %load_initial = load float, ptr %scevgep, align 4
  br label %30

26:                                               ; preds = %._crit_edge.us.us.us.us.us, %26
  %store_forwarded95 = phi float [ %load_initial94, %._crit_edge.us.us.us.us.us ], [ %28, %26 ]
  %indvars.iv82 = phi i64 [ %13, %._crit_edge.us.us.us.us.us ], [ %indvars.iv.next83, %26 ]
  %gep = getelementptr float, ptr %invariant.gep, i64 %indvars.iv82
  %27 = load float, ptr %gep, align 4, !tbaa !39
  %28 = tail call nsz float @llvm.fmuladd.f32(float %4, float %store_forwarded95, float %27)
  store float %28, ptr %gep, align 4, !tbaa !39
  %indvars.iv.next83 = add nsw i64 %indvars.iv82, -1
  %29 = icmp sgt i64 %indvars.iv82, 1
  br i1 %29, label %26, label %._crit_edge35.us.us.us.us.us, !llvm.loop !85

30:                                               ; preds = %30, %.lr.ph.us.us.us.us.us
  %store_forwarded = phi float [ %load_initial, %.lr.ph.us.us.us.us.us ], [ %33, %30 ]
  %indvars.iv77 = phi i64 [ 1, %.lr.ph.us.us.us.us.us ], [ %indvars.iv.next78, %30 ]
  %31 = getelementptr float, ptr %22, i64 %indvars.iv77
  %32 = load float, ptr %31, align 4, !tbaa !39
  %33 = tail call nsz float @llvm.fmuladd.f32(float %4, float %store_forwarded, float %32)
  store float %33, ptr %31, align 4, !tbaa !39
  %indvars.iv.next78 = add nuw nsw i64 %indvars.iv77, 1
  %exitcond81.not = icmp eq i64 %indvars.iv.next78, %14
  br i1 %exitcond81.not, label %._crit_edge.us.us.us.us.us, label %30, !llvm.loop !86

._crit_edge.us.us.us.us.us:                       ; preds = %30
  %34 = load float, ptr %23, align 4, !tbaa !39
  %35 = fmul nsz float %5, %34
  store float %35, ptr %23, align 4, !tbaa !39
  %load_initial94 = load float, ptr %scevgep93, align 4
  br label %26

._crit_edge35.us.us.us.us.us:                     ; preds = %26
  %36 = add nuw nsw i32 %.02836.us.us.us.us.us, 1
  %exitcond85.not = icmp eq i32 %36, %3
  br i1 %exitcond85.not, label %._crit_edge38.split.us.us.us.split.us.us, label %.lr.ph.us.us.us.us.us, !llvm.loop !87

._crit_edge38.split.us.us.us.split.us.us:         ; preds = %._crit_edge35.us.us.us.us.us
  %indvars.iv.next87 = add nuw nsw i64 %indvars.iv86, 1
  %exitcond90.not = icmp eq i64 %indvars.iv.next87, %wide.trip.count89
  br i1 %exitcond90.not, label %._crit_edge, label %.preheader.us.us.us, !llvm.loop !88

.preheader.us.preheader:                          ; preds = %.preheader.lr.ph.split.us
  %37 = sext i32 %1 to i64
  %wide.trip.count = zext nneg i32 %2 to i64
  br label %.preheader.us

.preheader.us:                                    ; preds = %.preheader.us.preheader, %._crit_edge38.split.split.us45
  %indvars.iv = phi i64 [ 0, %.preheader.us.preheader ], [ %indvars.iv.next, %._crit_edge38.split.split.us45 ]
  %38 = mul nsw i64 %indvars.iv, %37
  %39 = getelementptr inbounds float, ptr %0, i64 %38
  %40 = getelementptr inbounds float, ptr %39, i64 %11
  br label %41

41:                                               ; preds = %.preheader.us, %41
  %.02836.us44 = phi i32 [ 0, %.preheader.us ], [ %46, %41 ]
  %42 = load float, ptr %39, align 4, !tbaa !39
  %43 = fmul nsz float %5, %42
  store float %43, ptr %39, align 4, !tbaa !39
  %44 = load float, ptr %40, align 4, !tbaa !39
  %45 = fmul nsz float %5, %44
  store float %45, ptr %40, align 4, !tbaa !39
  %46 = add nuw nsw i32 %.02836.us44, 1
  %exitcond.not = icmp eq i32 %46, %3
  br i1 %exitcond.not, label %._crit_edge38.split.split.us45, label %41, !llvm.loop !87

._crit_edge38.split.split.us45:                   ; preds = %41
  %indvars.iv.next = add nuw nsw i64 %indvars.iv, 1
  %exitcond56.not = icmp eq i64 %indvars.iv.next, %wide.trip.count
  br i1 %exitcond56.not, label %._crit_edge, label %.preheader.us, !llvm.loop !88

._crit_edge:                                      ; preds = %._crit_edge38.split.split.us45, %._crit_edge38.split.us.us.us.split.us.us, %.preheader.lr.ph, %7
  ret void
}